target datalayout = "e-m:e-p270:32:32-p271:32:32-p272:64:64-i64:64-i128:128-f80:128-n8:16:32:64-S128"
target triple = "x86_64-pc-linux-gnu"

; Function Attrs: mustprogress uwtable
define noundef zeroext i1 @_ZN2cv5aruco16RefineParameters20readRefineParametersERKNS_8FileNodeE(ptr noundef nonnull align 4 dereferenceable(9) %0, ptr noundef nonnull align 8 dereferenceable(24) %1) #4 align 2 {
  %3 = alloca i1, align 1
  %4 = alloca ptr, align 8
  %5 = alloca ptr, align 8
  store ptr %0, ptr %4, align 8
  store ptr %1, ptr %5, align 8
  %6 = load ptr, ptr %4, align 8
  %7 = load ptr, ptr %5, align 8
  %8 = call noundef zeroext i1 @_ZNK2cv8FileNode5emptyEv(ptr noundef nonnull align 8 dereferenceable(24) %7)
  br i1 %8, label %9, label %10

9:                                                ; preds = %2
  store i1 false, ptr %3, align 1
  br label %13

10:                                               ; preds = %2
  %11 = load ptr, ptr %5, align 8
  %12 = call noundef zeroext i1 @_ZN2cv5arucoL9readWriteERNS0_16RefineParametersEPKNS_8FileNodeEPNS_11FileStorageE(ptr noundef nonnull align 4 dereferenceable(9) %6, ptr noundef %11, ptr noundef null)
  store i1 %12, ptr %3, align 1
  br label %13

13:                                               ; preds = %10, %9
  %14 = load i1, ptr %3, align 1
  ret i1 %14
}