; Function Attrs: mustprogress uwtable
define noundef zeroext i1 @_ZN2cv5aruco16RefineParameters20readRefineParametersERKNS_8FileNodeE(ptr noundef nonnull align 4 dereferenceable(9) %0, ptr noundef nonnull align 8 dereferenceable(24) %1) local_unnamed_addr #3 align 2 {
  %3 = tail call noundef zeroext i1 @_ZNK2cv8FileNode5emptyEv(ptr noundef nonnull align 8 dereferenceable(24) %1)
  br i1 %3, label %6, label %4

4:                                                ; preds = %2
  %5 = tail call fastcc noundef zeroext i1 @_ZN2cv5arucoL9readWriteERNS0_16RefineParametersEPKNS_8FileNodeEPNS_11FileStorageE(ptr noundef nonnull align 4 dereferenceable(9) %0, ptr noundef nonnull %1, ptr noundef null)
  br label %6

6:                                                ; preds = %2, %4
  %.0 = phi i1 [ %5, %4 ], [ false, %2 ]
  ret i1 %.0
}